target datalayout = "e-m:e-p270:32:32-p271:32:32-p272:64:64-i64:64-i128:128-f80:128-n8:16:32:64-S128"
target triple = "x86_64-unknown-linux-gnu"

@.str.14 = private unnamed_addr constant [32 x i8] c"unsupported escape code: '\\%c'\0A\00", align 1
@.str.15 = private unnamed_addr constant [21 x i8] c"unterminated string\0A\00", align 1

; Function Attrs: nounwind sspstrong uwtable
define internal i32 @get_str(ptr noundef %buf, i32 noundef %buf_size, ptr noundef %pp) #0 {
entry:
  %retval = alloca i32, align 4
  %buf.addr = alloca ptr, align 8
  %buf_size.addr = alloca i32, align 4
  %pp.addr = alloca ptr, align 8
  %p = alloca ptr, align 8
  %q = alloca ptr, align 8
  %c = alloca i32, align 4
  store ptr %buf, ptr %buf.addr, align 8
  store i32 %buf_size, ptr %buf_size.addr, align 4
  store ptr %pp, ptr %pp.addr, align 8
  %0 = load ptr, ptr %buf.addr, align 8
  store ptr %0, ptr %q, align 8
  %1 = load ptr, ptr %pp.addr, align 8
  %2 = load ptr, ptr %1, align 8
  store ptr %2, ptr %p, align 8
  br label %while.cond

while.cond:                                       ; preds = %while.body, %entry
  %call = call ptr @__ctype_b_loc() #14
  %3 = load ptr, ptr %call, align 8
  %4 = load ptr, ptr %p, align 8
  %5 = load i8, ptr %4, align 1
  %conv = zext i8 %5 to i32
  %idxprom = sext i32 %conv to i64
  %arrayidx = getelementptr i16, ptr %3, i64 %idxprom
  %6 = load i16, ptr %arrayidx, align 2
  %conv1 = zext i16 %6 to i32
  %and = and i32 %conv1, 8192
  %tobool = icmp ne i32 %and, 0
  br i1 %tobool, label %while.body, label %while.end

while.body:                                       ; preds = %while.cond
  %7 = load ptr, ptr %p, align 8
  %incdec.ptr = getelementptr i8, ptr %7, i32 1
  store ptr %incdec.ptr, ptr %p, align 8
  br label %while.cond, !llvm.loop !31

while.end:                                        ; preds = %while.cond
  %8 = load ptr, ptr %p, align 8
  %9 = load i8, ptr %8, align 1
  %conv2 = sext i8 %9 to i32
  %cmp = icmp eq i32 %conv2, 0
  br i1 %cmp, label %if.then, label %if.end

if.then:                                          ; preds = %while.end
  br label %fail

fail:                                             ; preds = %if.then50, %sw.default, %if.then
  %10 = load ptr, ptr %q, align 8
  store i8 0, ptr %10, align 1
  %11 = load ptr, ptr %p, align 8
  %12 = load ptr, ptr %pp.addr, align 8
  store ptr %11, ptr %12, align 8
  store i32 -1, ptr %retval, align 4
  br label %return

if.end:                                           ; preds = %while.end
  %13 = load ptr, ptr %p, align 8
  %14 = load i8, ptr %13, align 1
  %conv4 = sext i8 %14 to i32
  %cmp5 = icmp eq i32 %conv4, 34
  br i1 %cmp5, label %if.then7, label %if.else54

if.then7:                                         ; preds = %if.end
  %15 = load ptr, ptr %p, align 8
  %incdec.ptr8 = getelementptr i8, ptr %15, i32 1
  store ptr %incdec.ptr8, ptr %p, align 8
  br label %while.cond9

while.cond9:                                      ; preds = %if.end45, %if.then7
  %16 = load ptr, ptr %p, align 8
  %17 = load i8, ptr %16, align 1
  %conv10 = sext i8 %17 to i32
  %cmp11 = icmp ne i32 %conv10, 0
  br i1 %cmp11, label %land.rhs, label %land.end

land.rhs:                                         ; preds = %while.cond9
  %18 = load ptr, ptr %p, align 8
  %19 = load i8, ptr %18, align 1
  %conv13 = sext i8 %19 to i32
  %cmp14 = icmp ne i32 %conv13, 34
  br label %land.end

land.end:                                         ; preds = %land.rhs, %while.cond9
  %20 = phi i1 [ false, %while.cond9 ], [ %cmp14, %land.rhs ]
  br i1 %20, label %while.body16, label %while.end46

while.body16:                                     ; preds = %land.end
  %21 = load ptr, ptr %p, align 8
  %22 = load i8, ptr %21, align 1
  %conv17 = sext i8 %22 to i32
  %cmp18 = icmp eq i32 %conv17, 92
  br i1 %cmp18, label %if.then20, label %if.else

if.then20:                                        ; preds = %while.body16
  %23 = load ptr, ptr %p, align 8
  %incdec.ptr21 = getelementptr i8, ptr %23, i32 1
  store ptr %incdec.ptr21, ptr %p, align 8
  %24 = load ptr, ptr %p, align 8
  %incdec.ptr22 = getelementptr i8, ptr %24, i32 1
  store ptr %incdec.ptr22, ptr %p, align 8
  %25 = load i8, ptr %24, align 1
  %conv23 = sext i8 %25 to i32
  store i32 %conv23, ptr %c, align 4
  %26 = load i32, ptr %c, align 4
  switch i32 %26, label %sw.default [
    i32 110, label %sw.bb
    i32 114, label %sw.bb24
    i32 92, label %sw.bb25
    i32 39, label %sw.bb25
    i32 34, label %sw.bb25
  ]

sw.bb:                                            ; preds = %if.then20
  store i32 10, ptr %c, align 4
  br label %sw.epilog

sw.bb24:                                          ; preds = %if.then20
  store i32 13, ptr %c, align 4
  br label %sw.epilog

sw.bb25:                                          ; preds = %if.then20, %if.then20, %if.then20
  br label %sw.epilog

sw.default:                                       ; preds = %if.then20
  %27 = load i32, ptr %c, align 4
  %call26 = call i32 (ptr, ...) @printf(ptr noundef @.str.14, i32 noundef %27)
  br label %fail

sw.epilog:                                        ; preds = %sw.bb25, %sw.bb24, %sw.bb
  %28 = load ptr, ptr %q, align 8
  %29 = load ptr, ptr %buf.addr, align 8
  %sub.ptr.lhs.cast = ptrtoint ptr %28 to i64
  %sub.ptr.rhs.cast = ptrtoint ptr %29 to i64
  %sub.ptr.sub = sub i64 %sub.ptr.lhs.cast, %sub.ptr.rhs.cast
  %30 = load i32, ptr %buf_size.addr, align 4
  %sub = sub i32 %30, 1
  %conv27 = sext i32 %sub to i64
  %cmp28 = icmp slt i64 %sub.ptr.sub, %conv27
  br i1 %cmp28, label %if.then30, label %if.end33

if.then30:                                        ; preds = %sw.epilog
  %31 = load i32, ptr %c, align 4
  %conv31 = trunc i32 %31 to i8
  %32 = load ptr, ptr %q, align 8
  %incdec.ptr32 = getelementptr i8, ptr %32, i32 1
  store ptr %incdec.ptr32, ptr %q, align 8
  store i8 %conv31, ptr %32, align 1
  br label %if.end33

if.end33:                                         ; preds = %if.then30, %sw.epilog
  br label %if.end45

if.else:                                          ; preds = %while.body16
  %33 = load ptr, ptr %q, align 8
  %34 = load ptr, ptr %buf.addr, align 8
  %sub.ptr.lhs.cast34 = ptrtoint ptr %33 to i64
  %sub.ptr.rhs.cast35 = ptrtoint ptr %34 to i64
  %sub.ptr.sub36 = sub i64 %sub.ptr.lhs.cast34, %sub.ptr.rhs.cast35
  %35 = load i32, ptr %buf_size.addr, align 4
  %sub37 = sub i32 %35, 1
  %conv38 = sext i32 %sub37 to i64
  %cmp39 = icmp slt i64 %sub.ptr.sub36, %conv38
  br i1 %cmp39, label %if.then41, label %if.end43

if.then41:                                        ; preds = %if.else
  %36 = load ptr, ptr %p, align 8
  %37 = load i8, ptr %36, align 1
  %38 = load ptr, ptr %q, align 8
  %incdec.ptr42 = getelementptr i8, ptr %38, i32 1
  store ptr %incdec.ptr42, ptr %q, align 8
  store i8 %37, ptr %38, align 1
  br label %if.end43

if.end43:                                         ; preds = %if.then41, %if.else
  %39 = load ptr, ptr %p, align 8
  %incdec.ptr44 = getelementptr i8, ptr %39, i32 1
  store ptr %incdec.ptr44, ptr %p, align 8
  br label %if.end45

if.end45:                                         ; preds = %if.end43, %if.end33
  br label %while.cond9, !llvm.loop !32

while.end46:                                      ; preds = %land.end
  %40 = load ptr, ptr %p, align 8
  %41 = load i8, ptr %40, align 1
  %conv47 = sext i8 %41 to i32
  %cmp48 = icmp ne i32 %conv47, 34
  br i1 %cmp48, label %if.then50, label %if.end52

if.then50:                                        ; preds = %while.end46
  %call51 = call i32 (ptr, ...) @printf(ptr noundef @.str.15)
  br label %fail

if.end52:                                         ; preds = %while.end46
  %42 = load ptr, ptr %p, align 8
  %incdec.ptr53 = getelementptr i8, ptr %42, i32 1
  store ptr %incdec.ptr53, ptr %p, align 8
  br label %if.end81

if.else54:                                        ; preds = %if.end
  br label %while.cond55

while.cond55:                                     ; preds = %if.end78, %if.else54
  %43 = load ptr, ptr %p, align 8
  %44 = load i8, ptr %43, align 1
  %conv56 = sext i8 %44 to i32
  %cmp57 = icmp ne i32 %conv56, 0
  br i1 %cmp57, label %land.rhs59, label %land.end67

land.rhs59:                                       ; preds = %while.cond55
  %call60 = call ptr @__ctype_b_loc() #14
  %45 = load ptr, ptr %call60, align 8
  %46 = load ptr, ptr %p, align 8
  %47 = load i8, ptr %46, align 1
  %conv61 = zext i8 %47 to i32
  %idxprom62 = sext i32 %conv61 to i64
  %arrayidx63 = getelementptr i16, ptr %45, i64 %idxprom62
  %48 = load i16, ptr %arrayidx63, align 2
  %conv64 = zext i16 %48 to i32
  %and65 = and i32 %conv64, 8192
  %tobool66 = icmp ne i32 %and65, 0
  %lnot = xor i1 %tobool66, true
  br label %land.end67

land.end67:                                       ; preds = %land.rhs59, %while.cond55
  %49 = phi i1 [ false, %while.cond55 ], [ %lnot, %land.rhs59 ]
  br i1 %49, label %while.body68, label %while.end80

while.body68:                                     ; preds = %land.end67
  %50 = load ptr, ptr %q, align 8
  %51 = load ptr, ptr %buf.addr, align 8
  %sub.ptr.lhs.cast69 = ptrtoint ptr %50 to i64
  %sub.ptr.rhs.cast70 = ptrtoint ptr %51 to i64
  %sub.ptr.sub71 = sub i64 %sub.ptr.lhs.cast69, %sub.ptr.rhs.cast70
  %52 = load i32, ptr %buf_size.addr, align 4
  %sub72 = sub i32 %52, 1
  %conv73 = sext i32 %sub72 to i64
  %cmp74 = icmp slt i64 %sub.ptr.sub71, %conv73
  br i1 %cmp74, label %if.then76, label %if.end78

if.then76:                                        ; preds = %while.body68
  %53 = load ptr, ptr %p, align 8
  %54 = load i8, ptr %53, align 1
  %55 = load ptr, ptr %q, align 8
  %incdec.ptr77 = getelementptr i8, ptr %55, i32 1
  store ptr %incdec.ptr77, ptr %q, align 8
  store i8 %54, ptr %55, align 1
  br label %if.end78

if.end78:                                         ; preds = %if.then76, %while.body68
  %56 = load ptr, ptr %p, align 8
  %incdec.ptr79 = getelementptr i8, ptr %56, i32 1
  store ptr %incdec.ptr79, ptr %p, align 8
  br label %while.cond55, !llvm.loop !33

while.end80:                                      ; preds = %land.end67
  br label %if.end81

if.end81:                                         ; preds = %while.end80, %if.end52
  %57 = load ptr, ptr %q, align 8
  store i8 0, ptr %57, align 1
  %58 = load ptr, ptr %p, align 8
  %59 = load ptr, ptr %pp.addr, align 8
  store ptr %58, ptr %59, align 8
  store i32 0, ptr %retval, align 4
  br label %return

return:                                           ; preds = %if.end81, %fail
  %60 = load i32, ptr %retval, align 4
  ret i32 %60
}