; Function Attrs: nofree nounwind sspstrong uwtable
define internal fastcc range(i32 -1, 1) i32 @get_str(ptr noundef nonnull %buf, ptr noundef nonnull captures(none) %pp) unnamed_addr #6 {
entry:
  %0 = load ptr, ptr %pp, align 8
  %call = tail call ptr @__ctype_b_loc() #21
  %1 = load ptr, ptr %call, align 8
  br label %while.cond

while.cond:                                       ; preds = %while.cond, %entry
  %p.0 = phi ptr [ %0, %entry ], [ %incdec.ptr, %while.cond ]
  %2 = load i8, ptr %p.0, align 1
  %idxprom = zext i8 %2 to i64
  %arrayidx = getelementptr i16, ptr %1, i64 %idxprom
  %3 = load i16, ptr %arrayidx, align 2
  %4 = and i16 %3, 8192
  %tobool.not = icmp eq i16 %4, 0
  %incdec.ptr = getelementptr i8, ptr %p.0, i64 1
  br i1 %tobool.not, label %while.end, label %while.cond, !llvm.loop !40

while.end:                                        ; preds = %while.cond
  switch i8 %2, label %land.rhs59.lr.ph [
    i8 0, label %return
    i8 34, label %if.then7
  ]

land.rhs59.lr.ph:                                 ; preds = %while.end
  %sub.ptr.rhs.cast70 = ptrtoint ptr %buf to i64
  br label %land.rhs59

if.then7:                                         ; preds = %while.end
  %sub.ptr.rhs.cast = ptrtoint ptr %buf to i64
  br label %while.cond9.outer

while.cond9.outer:                                ; preds = %while.cond9.outer.backedge, %if.then7
  %p.2.ph = phi ptr [ %incdec.ptr, %if.then7 ], [ %p.2.ph.be, %while.cond9.outer.backedge ]
  %q.1.ph = phi ptr [ %buf, %if.then7 ], [ %q.1.ph.be, %while.cond9.outer.backedge ]
  %sub.ptr.lhs.cast = ptrtoint ptr %q.1.ph to i64
  %sub.ptr.sub = sub i64 %sub.ptr.lhs.cast, %sub.ptr.rhs.cast
  %cmp28 = icmp slt i64 %sub.ptr.sub, 1023
  br label %while.cond9

while.cond9:                                      ; preds = %while.cond9.outer, %sw.epilog
  %p.2 = phi ptr [ %incdec.ptr22, %sw.epilog ], [ %p.2.ph, %while.cond9.outer ]
  %5 = load i8, ptr %p.2, align 1
  switch i8 %5, label %if.else [
    i8 92, label %if.then20
    i8 34, label %if.end52
    i8 0, label %if.then50
  ]

if.then20:                                        ; preds = %while.cond9
  %incdec.ptr21 = getelementptr i8, ptr %p.2, i64 1
  %incdec.ptr22 = getelementptr i8, ptr %p.2, i64 2
  %6 = load i8, ptr %incdec.ptr21, align 1
  switch i8 %6, label %sw.default [
    i8 110, label %sw.bb
    i8 114, label %sw.bb24
    i8 92, label %sw.epilog
    i8 39, label %sw.epilog
    i8 34, label %sw.epilog
  ]

sw.bb:                                            ; preds = %if.then20
  br label %sw.epilog

sw.bb24:                                          ; preds = %if.then20
  br label %sw.epilog

sw.default:                                       ; preds = %if.then20
  %conv23 = sext i8 %6 to i32
  %call26 = tail call i32 (ptr, ...) @printf(ptr noundef nonnull dereferenceable(1) @.str.14, i32 noundef %conv23)
  br label %return

sw.epilog:                                        ; preds = %if.then20, %if.then20, %if.then20, %sw.bb24, %sw.bb
  %c.0 = phi i8 [ %6, %if.then20 ], [ %6, %if.then20 ], [ %6, %if.then20 ], [ 13, %sw.bb24 ], [ 10, %sw.bb ]
  br i1 %cmp28, label %if.then30, label %while.cond9, !llvm.loop !41

if.then30:                                        ; preds = %sw.epilog
  %incdec.ptr32 = getelementptr i8, ptr %q.1.ph, i64 1
  store i8 %c.0, ptr %q.1.ph, align 1
  br label %while.cond9.outer.backedge

while.cond9.outer.backedge:                       ; preds = %if.then30, %if.end43
  %p.2.ph.be = phi ptr [ %incdec.ptr44, %if.end43 ], [ %incdec.ptr22, %if.then30 ]
  %q.1.ph.be = phi ptr [ %q.3, %if.end43 ], [ %incdec.ptr32, %if.then30 ]
  br label %while.cond9.outer, !llvm.loop !41

if.else:                                          ; preds = %while.cond9
  %sub.ptr.lhs.cast34 = ptrtoint ptr %q.1.ph to i64
  %sub.ptr.sub36 = sub i64 %sub.ptr.lhs.cast34, %sub.ptr.rhs.cast
  %cmp39 = icmp slt i64 %sub.ptr.sub36, 1023
  br i1 %cmp39, label %if.then41, label %if.end43

if.then41:                                        ; preds = %if.else
  %incdec.ptr42 = getelementptr i8, ptr %q.1.ph, i64 1
  store i8 %5, ptr %q.1.ph, align 1
  br label %if.end43

if.end43:                                         ; preds = %if.then41, %if.else
  %q.3 = phi ptr [ %incdec.ptr42, %if.then41 ], [ %q.1.ph, %if.else ]
  %incdec.ptr44 = getelementptr i8, ptr %p.2, i64 1
  br label %while.cond9.outer.backedge

if.then50:                                        ; preds = %while.cond9
  %puts = tail call i32 @puts(ptr nonnull dereferenceable(1) @str)
  br label %return

if.end52:                                         ; preds = %while.cond9
  %incdec.ptr53 = getelementptr i8, ptr %p.2, i64 1
  br label %return

land.rhs59:                                       ; preds = %land.rhs59.lr.ph, %if.end78
  %7 = phi i8 [ %2, %land.rhs59.lr.ph ], [ %11, %if.end78 ]
  %q.543 = phi ptr [ %buf, %land.rhs59.lr.ph ], [ %q.6, %if.end78 ]
  %p.542 = phi ptr [ %p.0, %land.rhs59.lr.ph ], [ %incdec.ptr79, %if.end78 ]
  %8 = load ptr, ptr %call, align 8
  %idxprom62 = zext i8 %7 to i64
  %arrayidx63 = getelementptr i16, ptr %8, i64 %idxprom62
  %9 = load i16, ptr %arrayidx63, align 2
  %10 = and i16 %9, 8192
  %tobool66.not = icmp eq i16 %10, 0
  br i1 %tobool66.not, label %while.body68, label %return

while.body68:                                     ; preds = %land.rhs59
  %sub.ptr.lhs.cast69 = ptrtoint ptr %q.543 to i64
  %sub.ptr.sub71 = sub i64 %sub.ptr.lhs.cast69, %sub.ptr.rhs.cast70
  %cmp74 = icmp slt i64 %sub.ptr.sub71, 1023
  br i1 %cmp74, label %if.then76, label %if.end78

if.then76:                                        ; preds = %while.body68
  %incdec.ptr77 = getelementptr i8, ptr %q.543, i64 1
  store i8 %7, ptr %q.543, align 1
  br label %if.end78

if.end78:                                         ; preds = %if.then76, %while.body68
  %q.6 = phi ptr [ %incdec.ptr77, %if.then76 ], [ %q.543, %while.body68 ]
  %incdec.ptr79 = getelementptr i8, ptr %p.542, i64 1
  %11 = load i8, ptr %incdec.ptr79, align 1
  %cmp57.not = icmp eq i8 %11, 0
  br i1 %cmp57.not, label %return, label %land.rhs59, !llvm.loop !42

return:                                           ; preds = %land.rhs59, %if.end78, %if.end52, %sw.default, %if.then50, %while.end
  %q.4.sink = phi ptr [ %buf, %while.end ], [ %q.1.ph, %sw.default ], [ %q.1.ph, %if.then50 ], [ %q.1.ph, %if.end52 ], [ %q.6, %if.end78 ], [ %q.543, %land.rhs59 ]
  %storemerge = phi ptr [ %p.0, %while.end ], [ %incdec.ptr22, %sw.default ], [ %p.2, %if.then50 ], [ %incdec.ptr53, %if.end52 ], [ %incdec.ptr79, %if.end78 ], [ %p.542, %land.rhs59 ]
  %retval.0 = phi i32 [ -1, %while.end ], [ -1, %sw.default ], [ -1, %if.then50 ], [ 0, %if.end52 ], [ 0, %if.end78 ], [ 0, %land.rhs59 ]
  store i8 0, ptr %q.4.sink, align 1
  store ptr %storemerge, ptr %pp, align 8
  ret i32 %retval.0
}